; Function Attrs: nounwind uwtable
define internal ptr @queuesmod_get_count(ptr noundef %0, ptr noundef %1, ptr noundef %2) #0 {
  %4 = alloca %struct.idarg_int64_converter_data, align 8
  call void @llvm.lifetime.start.p0(i64 16, ptr nonnull %4) #6
  call void @llvm.memset.p0.i64(ptr noundef nonnull align 8 dereferenceable(16) %4, i8 0, i64 16, i1 false)
  %5 = call i32 (ptr, ptr, ptr, ptr, ...) @PyArg_ParseTupleAndKeywords(ptr noundef %1, ptr noundef %2, ptr noundef nonnull @.str.47, ptr noundef nonnull @queuesmod_get_count.kwlist, ptr noundef nonnull @qidarg_converter, ptr noundef nonnull %4) #6
  %.not = icmp eq i32 %5, 0
  br i1 %.not, label %43, label %6

6:                                                ; preds = %3
  %7 = getelementptr inbounds nuw i8, ptr %4, i64 8
  %8 = load i64, ptr %7, align 8, !tbaa !43
  %9 = load ptr, ptr getelementptr inbounds nuw (i8, ptr @_globals, i64 8), align 8, !tbaa !20
  %10 = call i32 @PyThread_acquire_lock(ptr noundef %9, i32 noundef 1) #6
  %11 = load ptr, ptr getelementptr inbounds nuw (i8, ptr @_globals, i64 16), align 8, !tbaa !39
  %.not12.i.i.i = icmp eq ptr %11, null
  br i1 %.not12.i.i.i, label %_queues_lookup.exit.thread.i, label %.lr.ph.i.i.i

.lr.ph.i.i.i:                                     ; preds = %6, %15
  %.014.i.i.i = phi ptr [ %16, %15 ], [ %11, %6 ]
  %12 = getelementptr inbounds nuw i8, ptr %.014.i.i.i, i64 8
  %13 = load i64, ptr %12, align 8, !tbaa !46
  %14 = icmp eq i64 %13, %8
  br i1 %14, label %18, label %15

15:                                               ; preds = %.lr.ph.i.i.i
  %16 = load ptr, ptr %.014.i.i.i, align 8, !tbaa !40
  %.not.i.i.i = icmp eq ptr %16, null
  br i1 %.not.i.i.i, label %_queues_lookup.exit.thread.i, label %.lr.ph.i.i.i, !llvm.loop !62

_queues_lookup.exit.thread.i:                     ; preds = %15, %6
  %17 = load ptr, ptr getelementptr inbounds nuw (i8, ptr @_globals, i64 8), align 8, !tbaa !20
  call void @PyThread_release_lock(ptr noundef %17) #6
  br label %queue_get_count.exit

18:                                               ; preds = %.lr.ph.i.i.i
  %19 = getelementptr inbounds nuw i8, ptr %.014.i.i.i, i64 24
  %20 = load ptr, ptr %19, align 8, !tbaa !49
  %21 = load i64, ptr %20, align 8, !tbaa !63
  %22 = add i64 %21, 1
  store i64 %22, ptr %20, align 8, !tbaa !63
  %23 = load ptr, ptr getelementptr inbounds nuw (i8, ptr @_globals, i64 8), align 8, !tbaa !20
  call void @PyThread_release_lock(ptr noundef %23) #6
  %24 = getelementptr inbounds nuw i8, ptr %20, i64 8
  %25 = load ptr, ptr %24, align 8, !tbaa !35
  %26 = call i32 @PyThread_acquire_lock(ptr noundef %25, i32 noundef 1) #6
  %27 = getelementptr inbounds nuw i8, ptr %20, i64 16
  %28 = load i32, ptr %27, align 8, !tbaa !64
  %.not.i.i8.i = icmp eq i32 %28, 0
  br i1 %.not.i.i8.i, label %_queue_get_count.exit.i, label %_queue_lock.exit.i.i

_queue_lock.exit.i.i:                             ; preds = %18
  %29 = getelementptr inbounds nuw i8, ptr %20, i64 32
  %30 = load i64, ptr %29, align 8, !tbaa !66
  br label %_queue_get_count.exit.i

_queue_get_count.exit.i:                          ; preds = %_queue_lock.exit.i.i, %18
  %.07 = phi i64 [ -1, %18 ], [ %30, %_queue_lock.exit.i.i ]
  %.0.i9.i = phi i32 [ -14, %18 ], [ 0, %_queue_lock.exit.i.i ]
  %31 = load ptr, ptr %24, align 8, !tbaa !35
  call void @PyThread_release_lock(ptr noundef %31) #6
  %32 = load ptr, ptr getelementptr inbounds nuw (i8, ptr @_globals, i64 8), align 8, !tbaa !20
  %.not.i.i = icmp eq ptr %32, null
  br i1 %.not.i.i, label %37, label %33

33:                                               ; preds = %_queue_get_count.exit.i
  %34 = call i32 @PyThread_acquire_lock(ptr noundef nonnull %32, i32 noundef 1) #6
  %35 = load i64, ptr %20, align 8, !tbaa !63
  %36 = add i64 %35, -1
  store i64 %36, ptr %20, align 8, !tbaa !63
  call void @PyThread_release_lock(ptr noundef nonnull %32) #6
  br label %queue_get_count.exit

37:                                               ; preds = %_queue_get_count.exit.i
  %38 = load i64, ptr %20, align 8, !tbaa !63
  %39 = add i64 %38, -1
  store i64 %39, ptr %20, align 8, !tbaa !63
  br label %queue_get_count.exit

queue_get_count.exit:                             ; preds = %_queues_lookup.exit.thread.i, %33, %37
  %.18 = phi i64 [ -1, %_queues_lookup.exit.thread.i ], [ %.07, %37 ], [ %.07, %33 ]
  %.0.i = phi i32 [ -14, %_queues_lookup.exit.thread.i ], [ %.0.i9.i, %37 ], [ %.0.i9.i, %33 ]
  %40 = call fastcc i32 @handle_queue_error(i32 noundef %.0.i, ptr noundef %0, i64 noundef %8)
  %.not6 = icmp eq i32 %40, 0
  br i1 %.not6, label %41, label %43

41:                                               ; preds = %queue_get_count.exit
  %42 = call ptr @PyLong_FromSsize_t(i64 noundef %.18) #6
  br label %43

43:                                               ; preds = %41, %queue_get_count.exit, %3
  %.0 = phi ptr [ null, %3 ], [ %42, %41 ], [ null, %queue_get_count.exit ]
  call void @llvm.lifetime.end.p0(i64 16, ptr nonnull %4) #6
  ret ptr %.0
}